; Function Attrs: mustprogress uwtable
define hidden void @_Z20exec_Z3_rcf_intervalR11z3_replayer(ptr noundef nonnull align 8 dereferenceable(8) %0) #0 {
  %2 = tail call noundef ptr @_ZNK11z3_replayer7get_objEj(ptr noundef nonnull align 8 dereferenceable(8) %0, i32 noundef 0)
  %3 = tail call noundef ptr @_ZNK11z3_replayer7get_objEj(ptr noundef nonnull align 8 dereferenceable(8) %0, i32 noundef 1)
  %4 = tail call noundef ptr @_ZN11z3_replayer12get_int_addrEj(ptr noundef nonnull align 8 dereferenceable(8) %0, i32 noundef 2)
  %5 = tail call noundef ptr @_ZN11z3_replayer12get_int_addrEj(ptr noundef nonnull align 8 dereferenceable(8) %0, i32 noundef 3)
  %6 = tail call noundef ptr @_ZN11z3_replayer12get_obj_addrEj(ptr noundef nonnull align 8 dereferenceable(8) %0, i32 noundef 4)
  %7 = tail call noundef ptr @_ZN11z3_replayer12get_int_addrEj(ptr noundef nonnull align 8 dereferenceable(8) %0, i32 noundef 5)
  %8 = tail call noundef ptr @_ZN11z3_replayer12get_int_addrEj(ptr noundef nonnull align 8 dereferenceable(8) %0, i32 noundef 6)
  %9 = tail call noundef ptr @_ZN11z3_replayer12get_obj_addrEj(ptr noundef nonnull align 8 dereferenceable(8) %0, i32 noundef 7)
  %10 = tail call i32 @Z3_rcf_interval(ptr noundef %2, ptr noundef %3, ptr noundef %4, ptr noundef %5, ptr noundef %6, ptr noundef %7, ptr noundef %8, ptr noundef %9)
  ret void
}